; Function Attrs: mustprogress nofree norecurse nosync nounwind willreturn memory(argmem: read) uwtable
define ptr @av_dict_iterate(ptr noundef readonly captures(address_is_null) %0, ptr noundef %1) local_unnamed_addr #0 {
  %.not = icmp eq ptr %0, null
  br i1 %.not, label %20, label %3

3:                                                ; preds = %2
  %.not11 = icmp eq ptr %1, null
  br i1 %.not11, label %13, label %4

4:                                                ; preds = %3
  %5 = getelementptr inbounds nuw i8, ptr %0, i64 8
  %6 = load ptr, ptr %5, align 8, !tbaa !11
  %7 = ptrtoint ptr %1 to i64
  %8 = ptrtoint ptr %6 to i64
  %9 = sub i64 %7, %8
  %10 = lshr exact i64 %9, 4
  %11 = trunc i64 %10 to i32
  %12 = add i32 %11, 1
  br label %13

13:                                               ; preds = %4, %3
  %.0 = phi i32 [ %12, %4 ], [ 0, %3 ]
  %14 = load i32, ptr %0, align 8, !tbaa !4
  %.not12 = icmp slt i32 %.0, %14
  br i1 %.not12, label %15, label %20

15:                                               ; preds = %13
  %16 = getelementptr inbounds nuw i8, ptr %0, i64 8
  %17 = load ptr, ptr %16, align 8, !tbaa !11
  %18 = sext i32 %.0 to i64
  %19 = getelementptr inbounds %struct.AVDictionaryEntry, ptr %17, i64 %18
  br label %20

20:                                               ; preds = %13, %2, %15
  %.08 = phi ptr [ %19, %15 ], [ null, %2 ], [ null, %13 ]
  ret ptr %.08
}